target datalayout = "e-m:e-p270:32:32-p271:32:32-p272:64:64-i64:64-i128:128-f80:128-n8:16:32:64-S128"
target triple = "x86_64-pc-linux-gnu"

@hf_cscs_chset = internal global i32 0, align 4

; Function Attrs: null_pointer_is_valid sspstrong uwtable
define internal zeroext i1 @dissect_cscs_parameter(ptr noundef %0, ptr noundef %1, ptr noundef %2, i32 noundef %3, i32 noundef %4, i16 noundef zeroext %5, ptr noundef %6, i32 noundef %7, i32 noundef %8, ptr noundef %9, ptr noundef %10) #0 {
  %12 = alloca i1, align 1
  %13 = alloca ptr, align 8
  %14 = alloca ptr, align 8
  %15 = alloca ptr, align 8
  %16 = alloca i32, align 4
  %17 = alloca i32, align 4
  %18 = alloca i16, align 2
  %19 = alloca ptr, align 8
  %20 = alloca i32, align 4
  %21 = alloca i32, align 4
  %22 = alloca ptr, align 8
  %23 = alloca ptr, align 8
  store ptr %0, ptr %13, align 8
  store ptr %1, ptr %14, align 8
  store ptr %2, ptr %15, align 8
  store i32 %3, ptr %16, align 4
  store i32 %4, ptr %17, align 4
  store i16 %5, ptr %18, align 2
  store ptr %6, ptr %19, align 8
  store i32 %7, ptr %20, align 4
  store i32 %8, ptr %21, align 4
  store ptr %9, ptr %22, align 8
  store ptr %10, ptr %23, align 8
  %24 = load i32, ptr %17, align 4
  %25 = icmp eq i32 %24, 2
  br i1 %25, label %26, label %30

26:                                               ; preds = %11
  %27 = load i16, ptr %18, align 2
  %28 = zext i16 %27 to i32
  %29 = icmp eq i32 %28, 61
  br i1 %29, label %38, label %30

30:                                               ; preds = %26, %11
  %31 = load i32, ptr %17, align 4
  %32 = icmp eq i32 %31, 1
  br i1 %32, label %33, label %37

33:                                               ; preds = %30
  %34 = load i16, ptr %18, align 2
  %35 = zext i16 %34 to i32
  %36 = icmp eq i32 %35, 58
  br i1 %36, label %38, label %37

37:                                               ; preds = %33, %30
  store i1 false, ptr %12, align 1
  br label %49

38:                                               ; preds = %33, %26
  %39 = load i32, ptr %20, align 4
  %40 = icmp ugt i32 %39, 0
  br i1 %40, label %41, label %42

41:                                               ; preds = %38
  store i1 false, ptr %12, align 1
  br label %49

42:                                               ; preds = %38
  %43 = load ptr, ptr %15, align 8
  %44 = load i32, ptr @hf_cscs_chset, align 4
  %45 = load ptr, ptr %13, align 8
  %46 = load i32, ptr %16, align 4
  %47 = load i32, ptr %21, align 4
  %48 = call ptr @proto_tree_add_item(ptr noundef %43, i32 noundef %44, ptr noundef %45, i32 noundef %46, i32 noundef %47, i32 noundef 0)
  store i1 true, ptr %12, align 1
  br label %49

49:                                               ; preds = %42, %41, %37
  %50 = load i1, ptr %12, align 1
  ret i1 %50
}