; Function Attrs: null_pointer_is_valid sspstrong uwtable
define internal noundef zeroext i1 @dissect_cscs_parameter(ptr noundef %0, ptr readnone captures(none) %1, ptr noundef %2, i32 noundef %3, i32 noundef %4, i16 noundef zeroext %5, ptr readnone captures(none) %6, i32 noundef %7, i32 noundef %8, ptr readnone captures(none) %9, ptr readnone captures(none) %10) #0 {
  %12 = icmp eq i32 %4, 2
  %13 = icmp eq i16 %5, 61
  %or.cond = and i1 %12, %13
  br i1 %or.cond, label %17, label %14

14:                                               ; preds = %11
  %15 = icmp eq i32 %4, 1
  %16 = icmp eq i16 %5, 58
  %or.cond5 = and i1 %15, %16
  %.not = icmp eq i32 %7, 0
  %or.cond14 = and i1 %or.cond5, %.not
  br i1 %or.cond14, label %18, label %21

17:                                               ; preds = %11
  %.not.old = icmp eq i32 %7, 0
  br i1 %.not.old, label %18, label %21

18:                                               ; preds = %14, %17
  %19 = load i32, ptr @hf_cscs_chset, align 4
  %20 = tail call ptr @proto_tree_add_item(ptr noundef %2, i32 noundef %19, ptr noundef %0, i32 noundef %3, i32 noundef %8, i32 noundef 0)
  br label %21

21:                                               ; preds = %17, %14, %18
  %.0 = phi i1 [ true, %18 ], [ false, %14 ], [ false, %17 ]
  ret i1 %.0
}